target datalayout = "e-m:e-p270:32:32-p271:32:32-p272:64:64-i64:64-i128:128-f80:128-n8:16:32:64-S128"
target triple = "x86_64-pc-linux-gnu"

%struct.popup_info = type { ptr, ptr, i32, i32, ptr, ptr, ptr, %struct._GtkTreeIter, ptr, ptr, i32, i8, ptr, ptr, i32, ptr, ptr, i32, i32 }
%struct._GtkTreeIter = type { i32, ptr, ptr, ptr }
%struct.specific_info = type { i32, i32, ptr, ptr, ptr }
%struct.sview_search_info_t = type { i32, ptr, ptr, i32, i32 }
%struct._GError = type { i32, i32, ptr }

@cluster_flags = external global i32, align 4
@.str.34 = private unnamed_addr constant [20 x i8] c"Job(s) with Node %s\00", align 1
@.str.35 = private unnamed_addr constant [26 x i8] c"Partition(s) with Node %s\00", align 1
@.str.36 = private unnamed_addr constant [28 x i8] c"Reservation(s) with Node %s\00", align 1
@.str.37 = private unnamed_addr constant [22 x i8] c"Submit job on Node %s\00", align 1
@.str.38 = private unnamed_addr constant [22 x i8] c"Full Info for Node %s\00", align 1
@.str.39 = private unnamed_addr constant [13 x i8] c"Node got %d\0A\00", align 1
@federation_name = external global ptr, align 8
@.str.40 = private unnamed_addr constant [9 x i8] c" (%s:%s)\00", align 1
@popup_list = external global ptr, align 8
@.str.41 = private unnamed_addr constant [40 x i8] c"Failed to create node popup thread: %s\0A\00", align 1

; Function Attrs: nounwind uwtable
define dso_local void @popup_all_node_name(ptr noundef %0, i32 noundef %1, ptr noundef %2) #0 {
  %4 = alloca ptr, align 8
  %5 = alloca i32, align 4
  %6 = alloca ptr, align 8
  %7 = alloca [100 x i8], align 16
  %8 = alloca ptr, align 8
  %9 = alloca ptr, align 8
  %10 = alloca ptr, align 8
  %11 = alloca ptr, align 8
  %12 = alloca i32, align 4
  store ptr %0, ptr %4, align 8
  store i32 %1, ptr %5, align 4
  store ptr %2, ptr %6, align 8
  call void @llvm.lifetime.start.p0(i64 100, ptr %7) #7
  call void @llvm.memset.p0.i64(ptr align 16 %7, i8 0, i64 100, i1 false)
  call void @llvm.lifetime.start.p0(i64 8, ptr %8) #7
  store ptr null, ptr %8, align 8
  call void @llvm.lifetime.start.p0(i64 8, ptr %9) #7
  store ptr null, ptr %9, align 8
  call void @llvm.lifetime.start.p0(i64 8, ptr %10) #7
  store ptr null, ptr %10, align 8
  %13 = load i32, ptr %5, align 4
  switch i32 %13, label %34 [
    i32 0, label %14
    i32 1, label %18
    i32 2, label %22
    i32 6, label %26
    i32 8, label %30
  ]

14:                                               ; preds = %3
  %15 = getelementptr inbounds [100 x i8], ptr %7, i64 0, i64 0
  %16 = load ptr, ptr %4, align 8
  %17 = call i32 (ptr, i64, ptr, ...) @snprintf(ptr noundef %15, i64 noundef 100, ptr noundef @.str.34, ptr noundef %16) #7
  br label %36

18:                                               ; preds = %3
  %19 = getelementptr inbounds [100 x i8], ptr %7, i64 0, i64 0
  %20 = load ptr, ptr %4, align 8
  %21 = call i32 (ptr, i64, ptr, ...) @snprintf(ptr noundef %19, i64 noundef 100, ptr noundef @.str.35, ptr noundef %20) #7
  br label %36

22:                                               ; preds = %3
  %23 = getelementptr inbounds [100 x i8], ptr %7, i64 0, i64 0
  %24 = load ptr, ptr %4, align 8
  %25 = call i32 (ptr, i64, ptr, ...) @snprintf(ptr noundef %23, i64 noundef 100, ptr noundef @.str.36, ptr noundef %24) #7
  br label %36

26:                                               ; preds = %3
  %27 = getelementptr inbounds [100 x i8], ptr %7, i64 0, i64 0
  %28 = load ptr, ptr %4, align 8
  %29 = call i32 (ptr, i64, ptr, ...) @snprintf(ptr noundef %27, i64 noundef 100, ptr noundef @.str.37, ptr noundef %28) #7
  br label %36

30:                                               ; preds = %3
  %31 = getelementptr inbounds [100 x i8], ptr %7, i64 0, i64 0
  %32 = load ptr, ptr %4, align 8
  %33 = call i32 (ptr, i64, ptr, ...) @snprintf(ptr noundef %31, i64 noundef 100, ptr noundef @.str.38, ptr noundef %32) #7
  br label %36

34:                                               ; preds = %3
  %35 = load i32, ptr %5, align 4
  call void (ptr, ...) @g_print(ptr noundef @.str.39, i32 noundef %35)
  br label %36

36:                                               ; preds = %34, %30, %26, %22, %18, %14
  %37 = load ptr, ptr %6, align 8
  %38 = icmp ne ptr %37, null
  br i1 %38, label %39, label %58

39:                                               ; preds = %36
  %40 = load ptr, ptr @federation_name, align 8
  %41 = icmp ne ptr %40, null
  br i1 %41, label %42, label %58

42:                                               ; preds = %39
  %43 = load i32, ptr @cluster_flags, align 4
  %44 = zext i32 %43 to i64
  %45 = and i64 %44, 2048
  %46 = icmp ne i64 %45, 0
  br i1 %46, label %47, label %58

47:                                               ; preds = %42
  call void @llvm.lifetime.start.p0(i64 8, ptr %11) #7
  %48 = load ptr, ptr @federation_name, align 8
  %49 = load ptr, ptr %6, align 8
  %50 = call ptr (ptr, ...) @xstrdup_printf(ptr noundef @.str.40, ptr noundef %48, ptr noundef %49)
  store ptr %50, ptr %11, align 8
  %51 = getelementptr inbounds [100 x i8], ptr %7, i64 0, i64 0
  %52 = load ptr, ptr %11, align 8
  %53 = getelementptr inbounds [100 x i8], ptr %7, i64 0, i64 0
  %54 = call i64 @strlen(ptr noundef %53) #9
  %55 = sub i64 100, %54
  %56 = sub i64 %55, 1
  %57 = call ptr @strncat(ptr noundef %51, ptr noundef %52, i64 noundef %56) #7
  call void @slurm_xfree(ptr noundef %11)
  call void @llvm.lifetime.end.p0(i64 8, ptr %11) #7
  br label %58

58:                                               ; preds = %47, %42, %39, %36
  %59 = load ptr, ptr @popup_list, align 8
  %60 = call ptr @list_iterator_create(ptr noundef %59)
  store ptr %60, ptr %8, align 8
  br label %61

61:                                               ; preds = %81, %58
  %62 = load ptr, ptr %8, align 8
  %63 = call ptr @list_next(ptr noundef %62)
  store ptr %63, ptr %9, align 8
  %64 = icmp ne ptr %63, null
  br i1 %64, label %65, label %82

65:                                               ; preds = %61
  %66 = load ptr, ptr %9, align 8
  %67 = getelementptr inbounds nuw %struct.popup_info, ptr %66, i32 0, i32 15
  %68 = load ptr, ptr %67, align 8
  %69 = icmp ne ptr %68, null
  br i1 %69, label %70, label %81

70:                                               ; preds = %65
  %71 = load ptr, ptr %9, align 8
  %72 = getelementptr inbounds nuw %struct.popup_info, ptr %71, i32 0, i32 15
  %73 = load ptr, ptr %72, align 8
  %74 = getelementptr inbounds nuw %struct.specific_info, ptr %73, i32 0, i32 3
  %75 = load ptr, ptr %74, align 8
  %76 = getelementptr inbounds [100 x i8], ptr %7, i64 0, i64 0
  %77 = call i32 @xstrcmp(ptr noundef %75, ptr noundef %76)
  %78 = icmp ne i32 %77, 0
  br i1 %78, label %80, label %79

79:                                               ; preds = %70
  br label %82

80:                                               ; preds = %70
  br label %81

81:                                               ; preds = %80, %65
  br label %61, !llvm.loop !24

82:                                               ; preds = %79, %61
  %83 = load ptr, ptr %8, align 8
  call void @list_iterator_destroy(ptr noundef %83)
  %84 = load ptr, ptr %9, align 8
  %85 = icmp ne ptr %84, null
  br i1 %85, label %127, label %86

86:                                               ; preds = %82
  %87 = load i32, ptr %5, align 4
  %88 = icmp eq i32 %87, 8
  br i1 %88, label %89, label %93

89:                                               ; preds = %86
  %90 = load i32, ptr %5, align 4
  %91 = getelementptr inbounds [100 x i8], ptr %7, i64 0, i64 0
  %92 = call ptr @create_popup_info(i32 noundef %90, i32 noundef 4, ptr noundef %91)
  store ptr %92, ptr %9, align 8
  br label %97

93:                                               ; preds = %86
  %94 = load i32, ptr %5, align 4
  %95 = getelementptr inbounds [100 x i8], ptr %7, i64 0, i64 0
  %96 = call ptr @create_popup_info(i32 noundef 4, i32 noundef %94, ptr noundef %95)
  store ptr %96, ptr %9, align 8
  br label %97

97:                                               ; preds = %93, %89
  %98 = load ptr, ptr %4, align 8
  %99 = call noalias ptr @g_strdup(ptr noundef %98)
  %100 = load ptr, ptr %9, align 8
  %101 = getelementptr inbounds nuw %struct.popup_info, ptr %100, i32 0, i32 15
  %102 = load ptr, ptr %101, align 8
  %103 = getelementptr inbounds nuw %struct.specific_info, ptr %102, i32 0, i32 2
  %104 = load ptr, ptr %103, align 8
  %105 = getelementptr inbounds nuw %struct.sview_search_info_t, ptr %104, i32 0, i32 2
  store ptr %99, ptr %105, align 8
  %106 = load i32, ptr @cluster_flags, align 4
  %107 = zext i32 %106 to i64
  %108 = and i64 %107, 2048
  %109 = icmp ne i64 %108, 0
  br i1 %109, label %110, label %119

110:                                              ; preds = %97
  %111 = load ptr, ptr %6, align 8
  %112 = call noalias ptr @g_strdup(ptr noundef %111)
  %113 = load ptr, ptr %9, align 8
  %114 = getelementptr inbounds nuw %struct.popup_info, ptr %113, i32 0, i32 15
  %115 = load ptr, ptr %114, align 8
  %116 = getelementptr inbounds nuw %struct.specific_info, ptr %115, i32 0, i32 2
  %117 = load ptr, ptr %116, align 8
  %118 = getelementptr inbounds nuw %struct.sview_search_info_t, ptr %117, i32 0, i32 1
  store ptr %112, ptr %118, align 8
  br label %119

119:                                              ; preds = %110, %97
  %120 = load ptr, ptr %9, align 8
  %121 = call zeroext i1 @sview_thread_new(ptr noundef @popup_thr, ptr noundef %120, ptr noundef %10)
  br i1 %121, label %126, label %122

122:                                              ; preds = %119
  %123 = load ptr, ptr %10, align 8
  %124 = getelementptr inbounds nuw %struct._GError, ptr %123, i32 0, i32 2
  %125 = load ptr, ptr %124, align 8
  call void (ptr, ...) @g_printerr(ptr noundef @.str.41, ptr noundef %125)
  store i32 1, ptr %12, align 4
  br label %134

126:                                              ; preds = %119
  br label %133

127:                                              ; preds = %82
  %128 = load ptr, ptr %9, align 8
  %129 = getelementptr inbounds nuw %struct.popup_info, ptr %128, i32 0, i32 12
  %130 = load ptr, ptr %129, align 8
  %131 = call i64 @gtk_window_get_type() #8
  %132 = call ptr @g_type_check_instance_cast(ptr noundef %130, i64 noundef %131)
  call void @gtk_window_present(ptr noundef %132)
  br label %133

133:                                              ; preds = %127, %126
  store i32 0, ptr %12, align 4
  br label %134

134:                                              ; preds = %133, %122
  call void @llvm.lifetime.end.p0(i64 8, ptr %10) #7
  call void @llvm.lifetime.end.p0(i64 8, ptr %9) #7
  call void @llvm.lifetime.end.p0(i64 8, ptr %8) #7
  call void @llvm.lifetime.end.p0(i64 100, ptr %7) #7
  %135 = load i32, ptr %12, align 4
  switch i32 %135, label %137 [
    i32 0, label %136
    i32 1, label %136
  ]

136:                                              ; preds = %134, %134
  ret void

137:                                              ; preds = %134
  unreachable
}