; Function Attrs: nounwind uwtable
define dso_local void @popup_all_node_name(ptr noundef %0, i32 noundef %1, ptr noundef %2) local_unnamed_addr #0 {
  %4 = alloca [100 x i8], align 16
  %5 = alloca ptr, align 8
  %6 = alloca ptr, align 8
  call void @llvm.lifetime.start.p0(i64 100, ptr nonnull %4) #11
  call void @llvm.memset.p0.i64(ptr noundef nonnull align 16 dereferenceable(100) %4, i8 0, i64 100, i1 false)
  call void @llvm.lifetime.start.p0(i64 8, ptr nonnull %5) #11
  store ptr null, ptr %5, align 8
  switch i32 %1, label %17 [
    i32 0, label %7
    i32 1, label %9
    i32 2, label %11
    i32 6, label %13
    i32 8, label %15
  ]

7:                                                ; preds = %3
  %8 = call i32 (ptr, i64, ptr, ...) @snprintf(ptr noundef nonnull dereferenceable(1) %4, i64 noundef 100, ptr noundef nonnull @.str.34, ptr noundef %0) #11
  br label %18

9:                                                ; preds = %3
  %10 = call i32 (ptr, i64, ptr, ...) @snprintf(ptr noundef nonnull dereferenceable(1) %4, i64 noundef 100, ptr noundef nonnull @.str.35, ptr noundef %0) #11
  br label %18

11:                                               ; preds = %3
  %12 = call i32 (ptr, i64, ptr, ...) @snprintf(ptr noundef nonnull dereferenceable(1) %4, i64 noundef 100, ptr noundef nonnull @.str.36, ptr noundef %0) #11
  br label %18

13:                                               ; preds = %3
  %14 = call i32 (ptr, i64, ptr, ...) @snprintf(ptr noundef nonnull dereferenceable(1) %4, i64 noundef 100, ptr noundef nonnull @.str.37, ptr noundef %0) #11
  br label %18

15:                                               ; preds = %3
  %16 = call i32 (ptr, i64, ptr, ...) @snprintf(ptr noundef nonnull dereferenceable(1) %4, i64 noundef 100, ptr noundef nonnull @.str.38, ptr noundef %0) #11
  br label %18

17:                                               ; preds = %3
  tail call void (ptr, ...) @g_print(ptr noundef nonnull @.str.39, i32 noundef %1) #11
  br label %18

18:                                               ; preds = %17, %15, %13, %11, %9, %7
  %19 = icmp ne ptr %2, null
  %20 = load ptr, ptr @federation_name, align 8
  %21 = icmp ne ptr %20, null
  %or.cond = select i1 %19, i1 %21, i1 false
  br i1 %or.cond, label %22, label %30

22:                                               ; preds = %18
  %23 = load i32, ptr @cluster_flags, align 4
  %24 = and i32 %23, 2048
  %.not = icmp eq i32 %24, 0
  br i1 %.not, label %30, label %25

25:                                               ; preds = %22
  call void @llvm.lifetime.start.p0(i64 8, ptr nonnull %6) #11
  %26 = tail call ptr (ptr, ...) @xstrdup_printf(ptr noundef nonnull @.str.40, ptr noundef nonnull %20, ptr noundef nonnull %2) #11
  store ptr %26, ptr %6, align 8
  %27 = call i64 @strlen(ptr noundef nonnull dereferenceable(1) %4) #13
  %28 = sub i64 99, %27
  %29 = call ptr @strncat(ptr noundef nonnull dereferenceable(1) %4, ptr noundef %26, i64 noundef %28) #11
  call void @slurm_xfree(ptr noundef nonnull %6) #11
  call void @llvm.lifetime.end.p0(i64 8, ptr nonnull %6) #11
  br label %30

30:                                               ; preds = %25, %22, %18
  %31 = load ptr, ptr @popup_list, align 8
  %32 = call ptr @list_iterator_create(ptr noundef %31) #11
  %33 = call ptr @list_next(ptr noundef %32) #11
  %.not2833 = icmp eq ptr %33, null
  br i1 %.not2833, label %._crit_edge, label %.lr.ph

.lr.ph:                                           ; preds = %30, %41
  %34 = phi ptr [ %42, %41 ], [ %33, %30 ]
  %35 = getelementptr inbounds nuw i8, ptr %34, i64 128
  %36 = load ptr, ptr %35, align 8
  %.not29 = icmp eq ptr %36, null
  br i1 %.not29, label %41, label %37

37:                                               ; preds = %.lr.ph
  %38 = getelementptr inbounds nuw i8, ptr %36, i64 16
  %39 = load ptr, ptr %38, align 8
  %40 = call i32 @xstrcmp(ptr noundef %39, ptr noundef nonnull %4) #11
  %.not30 = icmp eq i32 %40, 0
  br i1 %.not30, label %69, label %41

41:                                               ; preds = %37, %.lr.ph
  %42 = call ptr @list_next(ptr noundef %32) #11
  %.not28 = icmp eq ptr %42, null
  br i1 %.not28, label %._crit_edge, label %.lr.ph, !llvm.loop !24

._crit_edge:                                      ; preds = %41, %30
  call void @list_iterator_destroy(ptr noundef %32) #11
  %43 = icmp eq i32 %1, 8
  br i1 %43, label %44, label %46

44:                                               ; preds = %._crit_edge
  %45 = call ptr @create_popup_info(i32 noundef 8, i32 noundef 4, ptr noundef nonnull %4) #11
  br label %48

46:                                               ; preds = %._crit_edge
  %47 = call ptr @create_popup_info(i32 noundef 4, i32 noundef %1, ptr noundef nonnull %4) #11
  br label %48

48:                                               ; preds = %46, %44
  %.0 = phi ptr [ %45, %44 ], [ %47, %46 ]
  %49 = call noalias ptr @g_strdup(ptr noundef %0) #11
  %50 = getelementptr inbounds nuw i8, ptr %.0, i64 128
  %51 = load ptr, ptr %50, align 8
  %52 = getelementptr inbounds nuw i8, ptr %51, i64 8
  %53 = load ptr, ptr %52, align 8
  %54 = getelementptr inbounds nuw i8, ptr %53, i64 16
  store ptr %49, ptr %54, align 8
  %55 = load i32, ptr @cluster_flags, align 4
  %56 = and i32 %55, 2048
  %.not31 = icmp eq i32 %56, 0
  br i1 %.not31, label %63, label %57

57:                                               ; preds = %48
  %58 = call noalias ptr @g_strdup(ptr noundef %2) #11
  %59 = load ptr, ptr %50, align 8
  %60 = getelementptr inbounds nuw i8, ptr %59, i64 8
  %61 = load ptr, ptr %60, align 8
  %62 = getelementptr inbounds nuw i8, ptr %61, i64 8
  store ptr %58, ptr %62, align 8
  br label %63

63:                                               ; preds = %57, %48
  %64 = call zeroext i1 @sview_thread_new(ptr noundef nonnull @popup_thr, ptr noundef nonnull %.0, ptr noundef nonnull %5) #11
  br i1 %64, label %74, label %65

65:                                               ; preds = %63
  %66 = load ptr, ptr %5, align 8
  %67 = getelementptr inbounds nuw i8, ptr %66, i64 8
  %68 = load ptr, ptr %67, align 8
  call void (ptr, ...) @g_printerr(ptr noundef nonnull @.str.41, ptr noundef %68) #11
  br label %74

69:                                               ; preds = %37
  call void @list_iterator_destroy(ptr noundef %32) #11
  %70 = getelementptr inbounds nuw i8, ptr %34, i64 104
  %71 = load ptr, ptr %70, align 8
  %72 = tail call i64 @gtk_window_get_type() #12
  %73 = call ptr @g_type_check_instance_cast(ptr noundef %71, i64 noundef %72) #11
  call void @gtk_window_present(ptr noundef %73) #11
  br label %74

74:                                               ; preds = %69, %63, %65
  call void @llvm.lifetime.end.p0(i64 8, ptr nonnull %5) #11
  call void @llvm.lifetime.end.p0(i64 100, ptr nonnull %4) #11
  ret void
}